; Function Attrs: mustprogress uwtable
define void @_ZN3zmq17socks_connecter_t5errorEv(ptr noundef nonnull align 8 dereferenceable(3032) %this) local_unnamed_addr #0 align 2 {
entry:
  %add.ptr = getelementptr inbounds i8, ptr %this, i64 1448
  %_handle = getelementptr inbounds i8, ptr %this, i64 1480
  %0 = load ptr, ptr %_handle, align 8
  tail call void @_ZN3zmq11io_object_t5rm_fdEPv(ptr noundef nonnull align 8 dereferenceable(16) %add.ptr, ptr noundef %0)
  tail call void @_ZN3zmq23stream_connecter_base_t5closeEv(ptr noundef nonnull align 8 dereferenceable(1544) %this)
  %_greeting_encoder = getelementptr inbounds i8, ptr %this, i64 1544
  tail call void @_ZN3zmq24socks_greeting_encoder_t5resetEv(ptr noundef nonnull align 8 dereferenceable(273) %_greeting_encoder)
  %_choice_decoder = getelementptr inbounds i8, ptr %this, i64 1824
  tail call void @_ZN3zmq22socks_choice_decoder_t5resetEv(ptr noundef nonnull align 8 dereferenceable(16) %_choice_decoder)
  %_basic_auth_request_encoder = getelementptr inbounds i8, ptr %this, i64 1840
  tail call void @_ZN3zmq34socks_basic_auth_request_encoder_t5resetEv(ptr noundef nonnull align 8 dereferenceable(529) %_basic_auth_request_encoder)
  %_auth_response_decoder = getelementptr inbounds i8, ptr %this, i64 2376
  tail call void @_ZN3zmq29socks_auth_response_decoder_t5resetEv(ptr noundef nonnull align 8 dereferenceable(16) %_auth_response_decoder)
  %_request_encoder = getelementptr inbounds i8, ptr %this, i64 2392
  tail call void @_ZN3zmq23socks_request_encoder_t5resetEv(ptr noundef nonnull align 8 dereferenceable(278) %_request_encoder)
  %_response_decoder = getelementptr inbounds i8, ptr %this, i64 2672
  tail call void @_ZN3zmq24socks_response_decoder_t5resetEv(ptr noundef nonnull align 8 dereferenceable(272) %_response_decoder)
  %_status = getelementptr inbounds i8, ptr %this, i64 3024
  store i32 0, ptr %_status, align 8
  tail call void @_ZN3zmq23stream_connecter_base_t19add_reconnect_timerEv(ptr noundef nonnull align 8 dereferenceable(1544) %this)
  ret void
}